target datalayout = "e-m:e-p270:32:32-p271:32:32-p272:64:64-i64:64-i128:128-f80:128-n8:16:32:64-S128"
target triple = "x86_64-pc-linux-gnu"

%union.pthread_mutex_t = type { %struct.__pthread_mutex_s }
%struct.__pthread_mutex_s = type { i32, i32, i32, i32, i32, i16, i16, %struct.__pthread_internal_list }
%struct.__pthread_internal_list = type { ptr, ptr }
%struct.slurm_step_id_msg = type { i64, i32, i32, i32 }
%struct.sockaddr_storage = type { i16, [118 x i8], i64 }
%struct.slurm_msg = type { %struct.sockaddr_storage, ptr, i32, i32, i32, i8, i32, i8, i32, ptr, ptr, i32, ptr, ptr, i16, i8, i16, i16, %struct.forward, ptr, %struct.sockaddr_storage, ptr }
%struct.forward = type { %struct.slurm_node_alias_addrs_t, i16, i16, ptr, i32, i16, i16 }
%struct.slurm_node_alias_addrs_t = type { i64, ptr, ptr, i32, ptr }
%struct.slurm_selected_step_t = type { ptr, i32, i32, %struct.slurm_step_id_msg }

@stepmgr_mutex = dso_local global %union.pthread_mutex_t zeroinitializer, align 8
@.str.22 = private unnamed_addr constant [29 x i8] c"%s: pthread_mutex_lock(): %m\00", align 1
@.str.23 = private unnamed_addr constant [31 x i8] c"%s: pthread_mutex_unlock(): %m\00", align 1
@job_step_ptr = external global ptr, align 8
@__func__._handle_job_sbcast_cred = private unnamed_addr constant [24 x i8] c"_handle_job_sbcast_cred\00", align 1

; Function Attrs: nounwind uwtable
define internal i32 @_handle_job_sbcast_cred(i32 noundef %0, ptr noundef %1, i32 noundef %2) #0 {
  %4 = alloca i32, align 4
  %5 = alloca i32, align 4
  %6 = alloca ptr, align 8
  %7 = alloca i32, align 4
  %8 = alloca i32, align 4
  %9 = alloca %struct.slurm_msg, align 8
  %10 = alloca ptr, align 8
  %11 = alloca ptr, align 8
  %12 = alloca i32, align 4
  %13 = alloca i32, align 4
  %14 = alloca i32, align 4
  store i32 %0, ptr %5, align 4
  store ptr %1, ptr %6, align 8
  store i32 %2, ptr %7, align 4
  call void @llvm.lifetime.start.p0(i64 4, ptr %8) #10
  call void @llvm.lifetime.start.p0(i64 424, ptr %9) #10
  call void @llvm.lifetime.start.p0(i64 8, ptr %10) #10
  call void @llvm.lifetime.start.p0(i64 8, ptr %11) #10
  store ptr null, ptr %11, align 8
  %15 = load i32, ptr %5, align 4
  %16 = load i32, ptr %7, align 4
  %17 = call i32 @_handle_stepmgr_relay_msg(i32 noundef %15, i32 noundef %16, ptr noundef %9, i16 noundef zeroext 4023, i1 noundef zeroext true)
  store i32 %17, ptr %8, align 4
  %18 = icmp ne i32 %17, 0
  br i1 %18, label %19, label %20

19:                                               ; preds = %3
  br label %60

20:                                               ; preds = %3
  %21 = getelementptr inbounds nuw %struct.slurm_msg, ptr %9, i32 0, i32 13
  %22 = load ptr, ptr %21, align 8
  store ptr %22, ptr %10, align 8
  br label %23

23:                                               ; preds = %20
  call void @llvm.lifetime.start.p0(i64 4, ptr %12) #10
  %24 = call i32 @pthread_mutex_lock(ptr noundef @stepmgr_mutex) #10
  store i32 %24, ptr %12, align 4
  %25 = load i32, ptr %12, align 4
  %26 = icmp ne i32 %25, 0
  br i1 %26, label %27, label %30

27:                                               ; preds = %23
  %28 = load i32, ptr %12, align 4
  %29 = call ptr @__errno_location() #11
  store i32 %28, ptr %29, align 4
  call void (ptr, ...) @fatal_abort(ptr noundef @.str.22, ptr noundef @__func__._handle_job_sbcast_cred) #12
  unreachable

30:                                               ; preds = %23
  call void @llvm.lifetime.end.p0(i64 4, ptr %12) #10
  br label %31

31:                                               ; preds = %30
  br label %32

32:                                               ; preds = %31
  %33 = load ptr, ptr @job_step_ptr, align 8
  %34 = load ptr, ptr %10, align 8
  %35 = getelementptr inbounds nuw %struct.slurm_selected_step_t, ptr %34, i32 0, i32 3
  %36 = getelementptr inbounds nuw %struct.slurm_msg, ptr %9, i32 0, i32 17
  %37 = load i16, ptr %36, align 2
  %38 = call i32 @stepmgr_get_job_sbcast_cred_msg(ptr noundef %33, ptr noundef %35, i16 noundef zeroext %37, ptr noundef %11)
  store i32 %38, ptr %8, align 4
  br label %39

39:                                               ; preds = %32
  call void @llvm.lifetime.start.p0(i64 4, ptr %13) #10
  %40 = call i32 @pthread_mutex_unlock(ptr noundef @stepmgr_mutex) #10
  store i32 %40, ptr %13, align 4
  %41 = load i32, ptr %13, align 4
  %42 = icmp ne i32 %41, 0
  br i1 %42, label %43, label %46

43:                                               ; preds = %39
  %44 = load i32, ptr %13, align 4
  %45 = call ptr @__errno_location() #11
  store i32 %44, ptr %45, align 4
  call void (ptr, ...) @fatal_abort(ptr noundef @.str.23, ptr noundef @__func__._handle_job_sbcast_cred) #12
  unreachable

46:                                               ; preds = %39
  call void @llvm.lifetime.end.p0(i64 4, ptr %13) #10
  br label %47

47:                                               ; preds = %46
  br label %48

48:                                               ; preds = %47
  %49 = load i32, ptr %8, align 4
  %50 = icmp ne i32 %49, 0
  br i1 %50, label %51, label %52

51:                                               ; preds = %48
  br label %57

52:                                               ; preds = %48
  %53 = load ptr, ptr %11, align 8
  %54 = call i32 @send_msg_response(ptr noundef %9, i32 noundef 4024, ptr noundef %53)
  %55 = load ptr, ptr %11, align 8
  call void @slurm_free_sbcast_cred_msg(ptr noundef %55)
  call void @slurm_free_msg_members(ptr noundef %9)
  %56 = load i32, ptr %8, align 4
  store i32 %56, ptr %4, align 4
  store i32 1, ptr %14, align 4
  br label %62

57:                                               ; preds = %51
  %58 = load i32, ptr %8, align 4
  %59 = call i32 @slurm_send_rc_msg(ptr noundef %9, i32 noundef %58)
  call void @slurm_free_msg_members(ptr noundef %9)
  br label %60

60:                                               ; preds = %57, %19
  %61 = load i32, ptr %8, align 4
  store i32 %61, ptr %4, align 4
  store i32 1, ptr %14, align 4
  br label %62

62:                                               ; preds = %60, %52
  call void @llvm.lifetime.end.p0(i64 8, ptr %11) #10
  call void @llvm.lifetime.end.p0(i64 8, ptr %10) #10
  call void @llvm.lifetime.end.p0(i64 424, ptr %9) #10
  call void @llvm.lifetime.end.p0(i64 4, ptr %8) #10
  %63 = load i32, ptr %4, align 4
  ret i32 %63
}