; Function Attrs: nounwind uwtable
define internal fastcc void @_handle_job_sbcast_cred(i32 noundef %0, i32 noundef %1) unnamed_addr #0 {
  %3 = alloca %struct.slurm_msg, align 8
  %4 = alloca ptr, align 8
  call void @llvm.lifetime.start.p0(i64 424, ptr nonnull %3) #13
  call void @llvm.lifetime.start.p0(i64 8, ptr nonnull %4) #13
  store ptr null, ptr %4, align 8
  %5 = call fastcc i32 @_handle_stepmgr_relay_msg(i32 noundef %0, i32 noundef %1, ptr noundef %3, i16 noundef zeroext 4023, i1 noundef zeroext true)
  %.not = icmp eq i32 %5, 0
  br i1 %.not, label %6, label %28

6:                                                ; preds = %2
  %7 = getelementptr inbounds nuw i8, ptr %3, i64 200
  %8 = load ptr, ptr %7, align 8
  %9 = call i32 @pthread_mutex_lock(ptr noundef nonnull @stepmgr_mutex) #13
  %.not16 = icmp eq i32 %9, 0
  br i1 %.not16, label %12, label %10

10:                                               ; preds = %6
  %11 = tail call ptr @__errno_location() #14
  store i32 %9, ptr %11, align 4
  call void (ptr, ...) @fatal_abort(ptr noundef nonnull @.str.22, ptr noundef nonnull @__func__._handle_job_sbcast_cred) #15
  unreachable

12:                                               ; preds = %6
  %13 = load ptr, ptr @job_step_ptr, align 8
  %14 = getelementptr inbounds nuw i8, ptr %8, i64 16
  %15 = getelementptr inbounds nuw i8, ptr %3, i64 214
  %16 = load i16, ptr %15, align 2
  %17 = call i32 @stepmgr_get_job_sbcast_cred_msg(ptr noundef %13, ptr noundef nonnull %14, i16 noundef zeroext %16, ptr noundef nonnull %4) #13
  %18 = call i32 @pthread_mutex_unlock(ptr noundef nonnull @stepmgr_mutex) #13
  %.not17 = icmp eq i32 %18, 0
  br i1 %.not17, label %21, label %19

19:                                               ; preds = %12
  %20 = tail call ptr @__errno_location() #14
  store i32 %18, ptr %20, align 4
  call void (ptr, ...) @fatal_abort(ptr noundef nonnull @.str.23, ptr noundef nonnull @__func__._handle_job_sbcast_cred) #15
  unreachable

21:                                               ; preds = %12
  %.not18 = icmp eq i32 %17, 0
  br i1 %.not18, label %22, label %26

22:                                               ; preds = %21
  %23 = load ptr, ptr %4, align 8
  %24 = call i32 @send_msg_response(ptr noundef nonnull %3, i32 noundef 4024, ptr noundef %23) #13
  %25 = load ptr, ptr %4, align 8
  call void @slurm_free_sbcast_cred_msg(ptr noundef %25) #13
  br label %.sink.split

26:                                               ; preds = %21
  %27 = call i32 @slurm_send_rc_msg(ptr noundef nonnull %3, i32 noundef %17) #13
  br label %.sink.split

.sink.split:                                      ; preds = %22, %26
  call void @slurm_free_msg_members(ptr noundef nonnull %3) #13
  br label %28

28:                                               ; preds = %.sink.split, %2
  call void @llvm.lifetime.end.p0(i64 8, ptr nonnull %4) #13
  call void @llvm.lifetime.end.p0(i64 424, ptr nonnull %3) #13
  ret void
}